; Function Attrs: mustprogress nounwind uwtable
define internal void @_ZN12_GLOBAL__N_122RangeConstraintManager29assumeSymWithinInclusiveRangeEN4llvm18IntrusiveRefCntPtrIKN5clang4ento12ProgramStateEEEPKNS4_7SymExprERKNS1_6APSIntESD_SD_(ptr dead_on_unwind noalias nocapture writable writeonly sret(%"class.llvm::IntrusiveRefCntPtr.106") align 8 %0, ptr noundef nonnull align 8 dereferenceable(192) %1, ptr nocapture noundef readonly %2, ptr noundef %3, ptr noundef nonnull align 8 dereferenceable(13) %4, ptr noundef nonnull align 8 dereferenceable(13) %5, ptr noundef nonnull align 8 dereferenceable(13) %6) unnamed_addr #1 align 2 {
  %8 = alloca %"class.clang::ento::RangeSet", align 8
  %9 = alloca %"class.llvm::IntrusiveRefCntPtr.106", align 8
  %10 = alloca %class.anon.807, align 8
  %11 = load ptr, ptr %2, align 8
  store ptr %11, ptr %9, align 8
  %.not.i.i = icmp eq ptr %11, null
  br i1 %.not.i.i, label %_ZN4llvm18IntrusiveRefCntPtrIKN5clang4ento12ProgramStateEEC2ERKS5_.exit.thread, label %13

_ZN4llvm18IntrusiveRefCntPtrIKN5clang4ento12ProgramStateEEC2ERKS5_.exit.thread: ; preds = %7
  %12 = call fastcc ptr @_ZN12_GLOBAL__N_122RangeConstraintManager13getSymGERangeEN4llvm18IntrusiveRefCntPtrIKN5clang4ento12ProgramStateEEEPKNS4_7SymExprERKNS1_6APSIntESD_(ptr noundef nonnull align 8 dereferenceable(192) %1, ptr noundef nonnull %9, ptr noundef %3, ptr noundef nonnull align 8 dereferenceable(13) %4, ptr noundef nonnull align 8 dereferenceable(13) %6)
  br label %_ZN4llvm18IntrusiveRefCntPtrIKN5clang4ento12ProgramStateEED2Ev.exit

13:                                               ; preds = %7
  tail call void @_ZN5clang4ento18ProgramStateRetainEPKNS0_12ProgramStateE(ptr noundef nonnull %11) #22
  %14 = call fastcc ptr @_ZN12_GLOBAL__N_122RangeConstraintManager13getSymGERangeEN4llvm18IntrusiveRefCntPtrIKN5clang4ento12ProgramStateEEEPKNS4_7SymExprERKNS1_6APSIntESD_(ptr noundef nonnull align 8 dereferenceable(192) %1, ptr noundef nonnull %9, ptr noundef %3, ptr noundef nonnull align 8 dereferenceable(13) %4, ptr noundef nonnull align 8 dereferenceable(13) %6)
  tail call void @_ZN5clang4ento19ProgramStateReleaseEPKNS0_12ProgramStateE(ptr noundef nonnull %11) #22
  br label %_ZN4llvm18IntrusiveRefCntPtrIKN5clang4ento12ProgramStateEED2Ev.exit

_ZN4llvm18IntrusiveRefCntPtrIKN5clang4ento12ProgramStateEED2Ev.exit: ; preds = %_ZN4llvm18IntrusiveRefCntPtrIKN5clang4ento12ProgramStateEEC2ERKS5_.exit.thread, %13
  %.sink = phi ptr [ %12, %_ZN4llvm18IntrusiveRefCntPtrIKN5clang4ento12ProgramStateEEC2ERKS5_.exit.thread ], [ %14, %13 ]
  store ptr %.sink, ptr %8, align 8
  %15 = tail call noundef zeroext i1 @_ZNK4llvm15SmallVectorBaseIjE5emptyEv(ptr noundef nonnull align 8 dereferenceable(16) %.sink) #22
  br i1 %15, label %16, label %17

16:                                               ; preds = %_ZN4llvm18IntrusiveRefCntPtrIKN5clang4ento12ProgramStateEED2Ev.exit
  store ptr null, ptr %0, align 8
  br label %_ZN4llvm18IntrusiveRefCntPtrIKN5clang4ento12ProgramStateEED2Ev.exit12

17:                                               ; preds = %_ZN4llvm18IntrusiveRefCntPtrIKN5clang4ento12ProgramStateEED2Ev.exit
  store ptr %8, ptr %10, align 8
  %18 = ptrtoint ptr %10 to i64
  %19 = call fastcc ptr @_ZN12_GLOBAL__N_122RangeConstraintManager13getSymLERangeEN4llvm12function_refIFN5clang4ento8RangeSetEvEEERKNS1_6APSIntESA_(ptr noundef nonnull align 8 dereferenceable(192) %1, ptr nonnull @"_ZN4llvm12function_refIFN5clang4ento8RangeSetEvEE11callback_fnIZN12_GLOBAL__N_122RangeConstraintManager29assumeSymWithinInclusiveRangeENS_18IntrusiveRefCntPtrIKNS2_12ProgramStateEEEPKNS2_7SymExprERKNS_6APSIntESI_SI_E3$_0EES3_l", i64 %18, ptr noundef nonnull align 8 dereferenceable(13) %5, ptr noundef nonnull align 8 dereferenceable(13) %6)
  %20 = load ptr, ptr %2, align 8
  %.not.i.i9 = icmp eq ptr %20, null
  br i1 %.not.i.i9, label %_ZN4llvm18IntrusiveRefCntPtrIKN5clang4ento12ProgramStateEEC2ERKS5_.exit10.thread, label %21

_ZN4llvm18IntrusiveRefCntPtrIKN5clang4ento12ProgramStateEEC2ERKS5_.exit10.thread: ; preds = %17
  call fastcc void @_ZN12_GLOBAL__N_122RangeConstraintManager8setRangeEN4llvm18IntrusiveRefCntPtrIKN5clang4ento12ProgramStateEEEPKNS4_7SymExprENS4_8RangeSetE(ptr dead_on_unwind noalias writable align 8 %0, ptr noundef nonnull align 8 dereferenceable(192) %1, ptr null, ptr noundef %3, ptr %19)
  br label %_ZN4llvm18IntrusiveRefCntPtrIKN5clang4ento12ProgramStateEED2Ev.exit12

21:                                               ; preds = %17
  call void @_ZN5clang4ento18ProgramStateRetainEPKNS0_12ProgramStateE(ptr noundef nonnull %20) #22
  call fastcc void @_ZN12_GLOBAL__N_122RangeConstraintManager8setRangeEN4llvm18IntrusiveRefCntPtrIKN5clang4ento12ProgramStateEEEPKNS4_7SymExprENS4_8RangeSetE(ptr dead_on_unwind noalias writable align 8 %0, ptr noundef nonnull align 8 dereferenceable(192) %1, ptr nonnull %20, ptr noundef %3, ptr %19)
  call void @_ZN5clang4ento19ProgramStateReleaseEPKNS0_12ProgramStateE(ptr noundef nonnull %20) #22
  br label %_ZN4llvm18IntrusiveRefCntPtrIKN5clang4ento12ProgramStateEED2Ev.exit12

_ZN4llvm18IntrusiveRefCntPtrIKN5clang4ento12ProgramStateEED2Ev.exit12: ; preds = %21, %_ZN4llvm18IntrusiveRefCntPtrIKN5clang4ento12ProgramStateEEC2ERKS5_.exit10.thread, %16
  ret void
}